target datalayout = "e-m:e-p270:32:32-p271:32:32-p272:64:64-i64:64-i128:128-f80:128-n8:16:32:64-S128"
target triple = "x86_64-pc-linux-gnu"

%union.pthread_mutex_t = type { %struct.__pthread_mutex_s }
%struct.__pthread_mutex_s = type { i32, i32, i32, i32, i32, i16, i16, %struct.__pthread_internal_list }
%struct.__pthread_internal_list = type { ptr, ptr }
%struct.tMPI_Thread_mutex_t = type { %struct.tMPI_Atomic, ptr }
%struct.tMPI_Atomic = type { i32, [60 x i8] }
%struct.tMPI_Mutex = type { %union.pthread_mutex_t }

@_ZL10mutex_init = internal global %union.pthread_mutex_t zeroinitializer, align 8

; Function Attrs: mustprogress nounwind uwtable
define internal noundef i32 @_ZL27tMPI_Thread_mutex_init_onceP19tMPI_Thread_mutex_t(ptr noundef %0) #0 {
  %2 = alloca i32, align 4
  %3 = alloca ptr, align 8
  %4 = alloca i32, align 4
  store ptr %0, ptr %3, align 8
  store i32 0, ptr %4, align 4
  %5 = load ptr, ptr %3, align 8
  %6 = getelementptr inbounds %struct.tMPI_Thread_mutex_t, ptr %5, i32 0, i32 0
  %7 = getelementptr inbounds %struct.tMPI_Atomic, ptr %6, i32 0, i32 0
  %8 = load i32, ptr %7, align 8
  %9 = icmp eq i32 %8, 0
  br i1 %9, label %10, label %42

10:                                               ; preds = %1
  %11 = call i32 @pthread_mutex_lock(ptr noundef @_ZL10mutex_init) #8
  store i32 %11, ptr %4, align 4
  %12 = load i32, ptr %4, align 4
  %13 = icmp ne i32 %12, 0
  br i1 %13, label %14, label %16

14:                                               ; preds = %10
  %15 = load i32, ptr %4, align 4
  store i32 %15, ptr %2, align 4
  br label %47

16:                                               ; preds = %10
  %17 = load ptr, ptr %3, align 8
  %18 = getelementptr inbounds %struct.tMPI_Thread_mutex_t, ptr %17, i32 0, i32 1
  %19 = load ptr, ptr %18, align 8
  %20 = icmp eq ptr %19, null
  br i1 %20, label %21, label %40

21:                                               ; preds = %16
  %22 = call noalias ptr @malloc(i64 noundef 40) #9
  %23 = load ptr, ptr %3, align 8
  %24 = getelementptr inbounds %struct.tMPI_Thread_mutex_t, ptr %23, i32 0, i32 1
  store ptr %22, ptr %24, align 8
  %25 = load ptr, ptr %3, align 8
  %26 = getelementptr inbounds %struct.tMPI_Thread_mutex_t, ptr %25, i32 0, i32 1
  %27 = load ptr, ptr %26, align 8
  %28 = icmp eq ptr %27, null
  br i1 %28, label %29, label %30

29:                                               ; preds = %21
  store i32 12, ptr %4, align 4
  br label %44

30:                                               ; preds = %21
  %31 = load ptr, ptr %3, align 8
  %32 = getelementptr inbounds %struct.tMPI_Thread_mutex_t, ptr %31, i32 0, i32 1
  %33 = load ptr, ptr %32, align 8
  %34 = getelementptr inbounds %struct.tMPI_Mutex, ptr %33, i32 0, i32 0
  %35 = call i32 @pthread_mutex_init(ptr noundef %34, ptr noundef null) #8
  store i32 %35, ptr %4, align 4
  %36 = load i32, ptr %4, align 4
  %37 = icmp ne i32 %36, 0
  br i1 %37, label %38, label %39

38:                                               ; preds = %30
  br label %44

39:                                               ; preds = %30
  br label %40

40:                                               ; preds = %39, %16
  %41 = call i32 @pthread_mutex_unlock(ptr noundef @_ZL10mutex_init) #8
  store i32 %41, ptr %4, align 4
  br label %42

42:                                               ; preds = %40, %1
  %43 = load i32, ptr %4, align 4
  store i32 %43, ptr %2, align 4
  br label %47

44:                                               ; preds = %38, %29
  %45 = call i32 @pthread_mutex_unlock(ptr noundef @_ZL10mutex_init) #8
  %46 = load i32, ptr %4, align 4
  store i32 %46, ptr %2, align 4
  br label %47

47:                                               ; preds = %44, %42, %14
  %48 = load i32, ptr %2, align 4
  ret i32 %48
}

; Function Attrs: mustprogress uwtable
define noundef i32 @_Z24tMPI_Thread_mutex_unlockP19tMPI_Thread_mutex_t(ptr noundef %0) #2 {
  %2 = alloca i32, align 4
  %3 = alloca ptr, align 8
  %4 = alloca i32, align 4
  store ptr %0, ptr %3, align 8
  %5 = load ptr, ptr %3, align 8
  %6 = call noundef i32 @_ZL27tMPI_Thread_mutex_init_onceP19tMPI_Thread_mutex_t(ptr noundef %5)
  store i32 %6, ptr %4, align 4
  %7 = load i32, ptr %4, align 4
  %8 = icmp ne i32 %7, 0
  br i1 %8, label %9, label %11

9:                                                ; preds = %1
  %10 = load i32, ptr %4, align 4
  store i32 %10, ptr %2, align 4
  br label %18

11:                                               ; preds = %1
  %12 = load ptr, ptr %3, align 8
  %13 = getelementptr inbounds %struct.tMPI_Thread_mutex_t, ptr %12, i32 0, i32 1
  %14 = load ptr, ptr %13, align 8
  %15 = getelementptr inbounds %struct.tMPI_Mutex, ptr %14, i32 0, i32 0
  %16 = call i32 @pthread_mutex_unlock(ptr noundef %15) #8
  store i32 %16, ptr %4, align 4
  %17 = load i32, ptr %4, align 4
  store i32 %17, ptr %2, align 4
  br label %18

18:                                               ; preds = %11, %9
  %19 = load i32, ptr %2, align 4
  ret i32 %19
}